; ModuleID = '17/285.c'
source_filename = "17/285.c"
target datalayout = "e-m:e-p270:32:32-p271:32:32-p272:64:64-i64:64-f80:128-n8:16:32:64-S128"
target triple = "x86_64-pc-linux-gnu"

@.str = private unnamed_addr constant [7 x i8] c"%s\0A%s\0A\00", align 1

; Function Attrs: noinline nounwind uwtable
define dso_local i32 @main() #0 {
  %1 = alloca i32, align 4
  %2 = alloca [110 x i8], align 16
  %3 = alloca [110 x i8], align 16
  %4 = alloca [110 x i8], align 16
  %5 = alloca i32, align 4
  %6 = alloca i32, align 4
  store i32 0, i32* %1, align 4
  br label %7

7:                                                ; preds = %59, %0
  %8 = getelementptr inbounds [110 x i8], [110 x i8]* %2, i64 0, i64 0
  %9 = call i32 (i8*, ...) bitcast (i32 (...)* @gets to i32 (i8*, ...)*)(i8* %8)
  %10 = icmp ne i32 %9, 0
  br i1 %10, label %11, label %66

11:                                               ; preds = %7
  store i32 0, i32* %6, align 4
  store i32 0, i32* %5, align 4
  br label %12

12:                                               ; preds = %56, %11
  %13 = load i32, i32* %5, align 4
  %14 = sext i32 %13 to i64
  %15 = getelementptr inbounds [110 x i8], [110 x i8]* %2, i64 0, i64 %14
  %16 = load i8, i8* %15, align 1
  %17 = sext i8 %16 to i32
  %18 = icmp ne i32 %17, 0
  br i1 %18, label %19, label %59

19:                                               ; preds = %12
  %20 = load i32, i32* %5, align 4
  %21 = sext i32 %20 to i64
  %22 = getelementptr inbounds [110 x i8], [110 x i8]* %3, i64 0, i64 %21
  store i8 32, i8* %22, align 1
  %23 = load i32, i32* %5, align 4
  %24 = sext i32 %23 to i64
  %25 = getelementptr inbounds [110 x i8], [110 x i8]* %2, i64 0, i64 %24
  %26 = load i8, i8* %25, align 1
  %27 = sext i8 %26 to i32
  switch i32 %27, label %55 [
    i32 40, label %28
    i32 41, label %38
  ]

28:                                               ; preds = %19
  %29 = load i32, i32* %5, align 4
  %30 = trunc i32 %29 to i8
  %31 = load i32, i32* %6, align 4
  %32 = add nsw i32 %31, 1
  store i32 %32, i32* %6, align 4
  %33 = sext i32 %31 to i64
  %34 = getelementptr inbounds [110 x i8], [110 x i8]* %4, i64 0, i64 %33
  store i8 %30, i8* %34, align 1
  %35 = load i32, i32* %5, align 4
  %36 = sext i32 %35 to i64
  %37 = getelementptr inbounds [110 x i8], [110 x i8]* %3, i64 0, i64 %36
  store i8 36, i8* %37, align 1
  br label %55

38:                                               ; preds = %19
  %39 = load i32, i32* %6, align 4
  %40 = icmp ne i32 %39, 0
  br i1 %40, label %41, label %50

41:                                               ; preds = %38
  %42 = load i32, i32* %6, align 4
  %43 = add nsw i32 %42, -1
  store i32 %43, i32* %6, align 4
  %44 = load i32, i32* %6, align 4
  %45 = sext i32 %44 to i64
  %46 = getelementptr inbounds [110 x i8], [110 x i8]* %4, i64 0, i64 %45
  %47 = load i8, i8* %46, align 1
  %48 = sext i8 %47 to i64
  %49 = getelementptr inbounds [110 x i8], [110 x i8]* %3, i64 0, i64 %48
  store i8 32, i8* %49, align 1
  br label %54

50:                                               ; preds = %38
  %51 = load i32, i32* %5, align 4
  %52 = sext i32 %51 to i64
  %53 = getelementptr inbounds [110 x i8], [110 x i8]* %3, i64 0, i64 %52
  store i8 63, i8* %53, align 1
  br label %54

54:                                               ; preds = %50, %41
  br label %55

55:                                               ; preds = %19, %54, %28
  br label %56

56:                                               ; preds = %55
  %57 = load i32, i32* %5, align 4
  %58 = add nsw i32 %57, 1
  store i32 %58, i32* %5, align 4
  br label %12

59:                                               ; preds = %12
  %60 = load i32, i32* %5, align 4
  %61 = sext i32 %60 to i64
  %62 = getelementptr inbounds [110 x i8], [110 x i8]* %3, i64 0, i64 %61
  store i8 0, i8* %62, align 1
  %63 = getelementptr inbounds [110 x i8], [110 x i8]* %2, i64 0, i64 0
  %64 = getelementptr inbounds [110 x i8], [110 x i8]* %3, i64 0, i64 0
  %65 = call i32 (i8*, ...) @printf(i8* getelementptr inbounds ([7 x i8], [7 x i8]* @.str, i64 0, i64 0), i8* %63, i8* %64)
  br label %7

66:                                               ; preds = %7
  ret i32 0
}

declare dso_local i32 @gets(...) #1

declare dso_local i32 @printf(i8*, ...) #1


!llvm.module.flags = !{!0}
!llvm.ident = !{!1}

!0 = !{i32 1, !"wchar_size", i32 4}
!1 = !{!"clang version 10.0.0-4ubuntu1 "}
